target datalayout = "e-m:e-p270:32:32-p271:32:32-p272:64:64-i64:64-i128:128-f80:128-n8:16:32:64-S128"
target triple = "x86_64-pc-linux-gnu"

%class.QString = type { %struct.QArrayDataPointer }
%struct.QArrayDataPointer = type { ptr, ptr, i64 }
%class.RtpAnalysisDialog = type { %class.WiresharkDialog.base, ptr, i32, %class.QList.1, %class.QMultiHash, ptr, %class.QList.5, %class.QString, %class.QMenu, %class.QMenu }
%class.WiresharkDialog.base = type <{ %class.GeometryStateDialog, ptr, i8, [7 x i8], %class.QString, %class.QList, i32, i8 }>
%class.GeometryStateDialog = type { %class.QDialog, %class.QString }
%class.QDialog = type { %class.QWidget }
%class.QWidget = type { %class.QObject, %class.QPaintDevice.base, ptr }
%class.QObject = type { ptr, %class.QScopedPointer }
%class.QScopedPointer = type { ptr }
%class.QPaintDevice.base = type <{ ptr, i16 }>
%class.QList = type { %struct.QArrayDataPointer.0 }
%struct.QArrayDataPointer.0 = type { ptr, ptr, i64 }
%class.QList.1 = type { %struct.QArrayDataPointer.4 }
%struct.QArrayDataPointer.4 = type { ptr, ptr, i64 }
%class.QMultiHash = type { ptr, i64 }
%class.QList.5 = type { %struct.QArrayDataPointer.8 }
%struct.QArrayDataPointer.8 = type { ptr, ptr, i64 }
%class.QMenu = type { %class.QWidget }
%class.QPoint = type { i32, i32 }
%class.QEvent = type { ptr, i16, i8, i8, i8, i8, i16 }
%class.QInputEvent = type { %class.QEvent, ptr, i64, %class.QFlags.88, i32 }
%class.QFlags.88 = type { i32 }
%class.QPointF = type { double, double }
%class.QSinglePointEvent = type { %class.QPointerEvent, i32, %class.QFlags.93, i32, i16, i16 }
%class.QPointerEvent = type { %class.QInputEvent, %class.QList.89 }
%class.QList.89 = type { %struct.QArrayDataPointer.92 }
%struct.QArrayDataPointer.92 = type { ptr, ptr, i64 }
%class.QFlags.93 = type { i32 }
%"class.QList<QEventPoint>::const_iterator" = type { ptr }

; Function Attrs: mustprogress nounwind uwtable
define linkonce_odr noundef ptr @_ZNK17QArrayDataPointerI11QEventPointE4dataEv(ptr noundef nonnull align 8 dereferenceable(24) %0) #5 comdat align 2 {
  %2 = alloca ptr, align 8
  store ptr %0, ptr %2, align 8
  %3 = load ptr, ptr %2, align 8
  %4 = getelementptr inbounds %struct.QArrayDataPointer.92, ptr %3, i32 0, i32 1
  %5 = load ptr, ptr %4, align 8
  ret ptr %5
}

; Function Attrs: mustprogress nounwind uwtable
define linkonce_odr void @_ZN5QListI11QEventPointE14const_iteratorC2EPKS0_(ptr noundef nonnull align 8 dereferenceable(8) %0, ptr noundef %1) unnamed_addr #5 comdat align 2 {
  %3 = alloca ptr, align 8
  %4 = alloca ptr, align 8
  store ptr %0, ptr %3, align 8
  store ptr %1, ptr %4, align 8
  %5 = load ptr, ptr %3, align 8
  %6 = getelementptr inbounds %"class.QList<QEventPoint>::const_iterator", ptr %5, i32 0, i32 0
  %7 = load ptr, ptr %4, align 8
  store ptr %7, ptr %6, align 8
  ret void
}

; Function Attrs: mustprogress nounwind uwtable
define linkonce_odr noundef ptr @_ZNK17QArrayDataPointerI11QEventPointE10constBeginEv(ptr noundef nonnull align 8 dereferenceable(24) %0) #5 comdat align 2 {
  %2 = alloca ptr, align 8
  store ptr %0, ptr %2, align 8
  %3 = load ptr, ptr %2, align 8
  %4 = call noundef ptr @_ZNK17QArrayDataPointerI11QEventPointE4dataEv(ptr noundef nonnull align 8 dereferenceable(24) %3) #18
  ret ptr %4
}

; Function Attrs: mustprogress nounwind uwtable
define linkonce_odr noundef ptr @_ZNK17QArrayDataPointerI11QEventPointEptEv(ptr noundef nonnull align 8 dereferenceable(24) %0) #5 comdat align 2 {
  %2 = alloca ptr, align 8
  store ptr %0, ptr %2, align 8
  %3 = load ptr, ptr %2, align 8
  ret ptr %3
}

; Function Attrs: noreturn nounwind uwtable
define linkonce_odr hidden void @__clang_call_terminate(ptr noundef %0) #6 comdat {
  %2 = call ptr @__cxa_begin_catch(ptr %0) #18
  call void @_ZSt9terminatev() #20
  unreachable
}

; Function Attrs: mustprogress nounwind uwtable
define linkonce_odr noundef nonnull align 8 dereferenceable(8) ptr @_ZNK5QListI11QEventPointE14const_iteratordeEv(ptr noundef nonnull align 8 dereferenceable(8) %0) #5 comdat align 2 {
  %2 = alloca ptr, align 8
  store ptr %0, ptr %2, align 8
  %3 = load ptr, ptr %2, align 8
  %4 = getelementptr inbounds %"class.QList<QEventPoint>::const_iterator", ptr %3, i32 0, i32 0
  %5 = load ptr, ptr %4, align 8
  ret ptr %5
}

; Function Attrs: mustprogress nounwind uwtable
define linkonce_odr ptr @_ZNK5QListI11QEventPointE5beginEv(ptr noundef nonnull align 8 dereferenceable(24) %0) #5 comdat align 2 personality ptr @__gxx_personality_v0 {
  %2 = alloca %"class.QList<QEventPoint>::const_iterator", align 8
  %3 = alloca ptr, align 8
  store ptr %0, ptr %3, align 8
  %4 = load ptr, ptr %3, align 8
  %5 = getelementptr inbounds %class.QList.89, ptr %4, i32 0, i32 0
  %6 = call noundef ptr @_ZNK17QArrayDataPointerI11QEventPointEptEv(ptr noundef nonnull align 8 dereferenceable(24) %5) #18
  %7 = call noundef ptr @_ZNK17QArrayDataPointerI11QEventPointE10constBeginEv(ptr noundef nonnull align 8 dereferenceable(24) %6) #18
  invoke void @_ZN5QListI11QEventPointE14const_iteratorC2EPKS0_(ptr noundef nonnull align 8 dereferenceable(8) %2, ptr noundef %7)
          to label %8 unwind label %11

8:                                                ; preds = %1
  %9 = getelementptr inbounds %"class.QList<QEventPoint>::const_iterator", ptr %2, i32 0, i32 0
  %10 = load ptr, ptr %9, align 8
  ret ptr %10

11:                                               ; preds = %1
  %12 = landingpad { ptr, i32 }
          catch ptr null
  %13 = extractvalue { ptr, i32 } %12, 0
  call void @__clang_call_terminate(ptr %13) #20
  unreachable
}

; Function Attrs: mustprogress nounwind uwtable
define linkonce_odr void @_ZN6QPointC2Eii(ptr noundef nonnull align 4 dereferenceable(8) %0, i32 noundef %1, i32 noundef %2) unnamed_addr #5 comdat align 2 {
  %4 = alloca ptr, align 8
  %5 = alloca i32, align 4
  %6 = alloca i32, align 4
  store ptr %0, ptr %4, align 8
  store i32 %1, ptr %5, align 4
  store i32 %2, ptr %6, align 4
  %7 = load ptr, ptr %4, align 8
  %8 = getelementptr inbounds %class.QPoint, ptr %7, i32 0, i32 0
  %9 = load i32, ptr %5, align 4
  store i32 %9, ptr %8, align 4
  %10 = getelementptr inbounds %class.QPoint, ptr %7, i32 0, i32 1
  %11 = load i32, ptr %6, align 4
  store i32 %11, ptr %10, align 4
  ret void
}

; Function Attrs: mustprogress nounwind uwtable
define linkonce_odr noundef i32 @_Z6qRoundd(double noundef %0) #5 comdat {
  %2 = alloca double, align 8
  store double %0, ptr %2, align 8
  %3 = load double, ptr %2, align 8
  %4 = load double, ptr %2, align 8
  %5 = call double @llvm.copysign.f64(double 5.000000e-01, double %4)
  %6 = fadd double %3, %5
  %7 = fptosi double %6 to i32
  ret i32 %7
}

; Function Attrs: mustprogress nounwind uwtable
define linkonce_odr noundef nonnull align 8 dereferenceable(8) ptr @_ZNK5QListI11QEventPointE5firstEv(ptr noundef nonnull align 8 dereferenceable(24) %0) #5 comdat align 2 personality ptr @__gxx_personality_v0 {
  %2 = alloca ptr, align 8
  %3 = alloca %"class.QList<QEventPoint>::const_iterator", align 8
  store ptr %0, ptr %2, align 8
  %4 = load ptr, ptr %2, align 8
  %5 = call ptr @_ZNK5QListI11QEventPointE5beginEv(ptr noundef nonnull align 8 dereferenceable(24) %4) #18
  %6 = getelementptr inbounds %"class.QList<QEventPoint>::const_iterator", ptr %3, i32 0, i32 0
  store ptr %5, ptr %6, align 8
  %7 = invoke noundef nonnull align 8 dereferenceable(8) ptr @_ZNK5QListI11QEventPointE14const_iteratordeEv(ptr noundef nonnull align 8 dereferenceable(8) %3)
          to label %8 unwind label %9

8:                                                ; preds = %1
  ret ptr %7

9:                                                ; preds = %1
  %10 = landingpad { ptr, i32 }
          catch ptr null
  %11 = extractvalue { ptr, i32 } %10, 0
  call void @__clang_call_terminate(ptr %11) #20
  unreachable
}

; Function Attrs: mustprogress uwtable
define linkonce_odr i64 @_ZNK7QPointF7toPointEv(ptr noundef nonnull align 8 dereferenceable(16) %0) #0 comdat align 2 {
  %2 = alloca %class.QPoint, align 4
  %3 = alloca ptr, align 8
  store ptr %0, ptr %3, align 8
  %4 = load ptr, ptr %3, align 8
  %5 = getelementptr inbounds %class.QPointF, ptr %4, i32 0, i32 0
  %6 = load double, ptr %5, align 8
  %7 = call noundef i32 @_Z6qRoundd(double noundef %6)
  %8 = getelementptr inbounds %class.QPointF, ptr %4, i32 0, i32 1
  %9 = load double, ptr %8, align 8
  %10 = call noundef i32 @_Z6qRoundd(double noundef %9)
  call void @_ZN6QPointC2Eii(ptr noundef nonnull align 4 dereferenceable(8) %2, i32 noundef %7, i32 noundef %10) #18
  %11 = load i64, ptr %2, align 4
  ret i64 %11
}

; Function Attrs: mustprogress uwtable
define linkonce_odr { double, double } @_ZNK17QSinglePointEvent14globalPositionEv(ptr noundef nonnull align 8 dereferenceable(80) %0) #0 comdat align 2 {
  %2 = alloca %class.QPointF, align 8
  %3 = alloca ptr, align 8
  store ptr %0, ptr %3, align 8
  %4 = load ptr, ptr %3, align 8
  %5 = getelementptr inbounds %class.QPointerEvent, ptr %4, i32 0, i32 1
  %6 = call noundef nonnull align 8 dereferenceable(8) ptr @_ZNK5QListI11QEventPointE5firstEv(ptr noundef nonnull align 8 dereferenceable(24) %5) #18
  %7 = call { double, double } @_ZNK11QEventPoint14globalPositionEv(ptr noundef nonnull align 8 dereferenceable(8) %6)
  %8 = getelementptr inbounds { double, double }, ptr %2, i32 0, i32 0
  %9 = extractvalue { double, double } %7, 0
  store double %9, ptr %8, align 8
  %10 = getelementptr inbounds { double, double }, ptr %2, i32 0, i32 1
  %11 = extractvalue { double, double } %7, 1
  store double %11, ptr %10, align 8
  %12 = load { double, double }, ptr %2, align 8
  ret { double, double } %12
}

; Function Attrs: mustprogress nounwind uwtable
define linkonce_odr noundef i32 @_ZNK17QSinglePointEvent6buttonEv(ptr noundef nonnull align 8 dereferenceable(80) %0) #5 comdat align 2 {
  %2 = alloca ptr, align 8
  store ptr %0, ptr %2, align 8
  %3 = load ptr, ptr %2, align 8
  %4 = getelementptr inbounds %class.QSinglePointEvent, ptr %3, i32 0, i32 1
  %5 = load i32, ptr %4, align 8
  ret i32 %5
}

; Function Attrs: mustprogress uwtable
define void @_ZN17RtpAnalysisDialog12graphClickedEP11QMouseEvent(ptr noundef nonnull align 8 dereferenceable(328) %0, ptr noundef %1) #0 align 2 {
  %3 = alloca ptr, align 8
  %4 = alloca ptr, align 8
  %5 = alloca %class.QPoint, align 4
  %6 = alloca %class.QPointF, align 8
  store ptr %0, ptr %3, align 8
  store ptr %1, ptr %4, align 8
  %7 = load ptr, ptr %3, align 8
  %8 = load ptr, ptr %7, align 8
  %9 = getelementptr inbounds ptr, ptr %8, i64 58
  %10 = load ptr, ptr %9, align 8
  call void %10(ptr noundef nonnull align 8 dereferenceable(328) %7)
  %11 = load ptr, ptr %4, align 8
  %12 = call noundef i32 @_ZNK17QSinglePointEvent6buttonEv(ptr noundef nonnull align 8 dereferenceable(80) %11)
  %13 = icmp eq i32 %12, 2
  br i1 %13, label %14, label %23

14:                                               ; preds = %2
  %15 = getelementptr inbounds %class.RtpAnalysisDialog, ptr %7, i32 0, i32 9
  %16 = load ptr, ptr %4, align 8
  %17 = call { double, double } @_ZNK17QSinglePointEvent14globalPositionEv(ptr noundef nonnull align 8 dereferenceable(80) %16)
  %18 = getelementptr inbounds { double, double }, ptr %6, i32 0, i32 0
  %19 = extractvalue { double, double } %17, 0
  store double %19, ptr %18, align 8
  %20 = getelementptr inbounds { double, double }, ptr %6, i32 0, i32 1
  %21 = extractvalue { double, double } %17, 1
  store double %21, ptr %20, align 8
  %22 = call i64 @_ZNK7QPointF7toPointEv(ptr noundef nonnull align 8 dereferenceable(16) %6)
  store i64 %22, ptr %5, align 4
  call void @_ZN5QMenu5popupERK6QPointP7QAction(ptr noundef nonnull align 8 dereferenceable(40) %15, ptr noundef nonnull align 4 dereferenceable(8) %5, ptr noundef null)
  br label %23

23:                                               ; preds = %14, %2
  ret void
}