; Function Attrs: mustprogress uwtable
define void @_ZN17RtpAnalysisDialog12graphClickedEP11QMouseEvent(ptr noundef nonnull align 8 dereferenceable(328) %0, ptr nocapture noundef readonly %1) local_unnamed_addr #0 align 2 personality ptr @__gxx_personality_v0 {
  %3 = alloca %class.QPoint, align 8
  %4 = load ptr, ptr %0, align 8
  %5 = getelementptr inbounds i8, ptr %4, i64 464
  %6 = load ptr, ptr %5, align 8
  tail call void %6(ptr noundef nonnull align 8 dereferenceable(328) %0)
  %7 = getelementptr inbounds i8, ptr %1, i64 64
  %8 = load i32, ptr %7, align 8
  %9 = icmp eq i32 %8, 2
  br i1 %9, label %10, label %23

10:                                               ; preds = %2
  %11 = getelementptr inbounds i8, ptr %0, i64 288
  %12 = getelementptr inbounds i8, ptr %1, i64 48
  %13 = load ptr, ptr %12, align 8
  %14 = tail call { double, double } @_ZNK11QEventPoint14globalPositionEv(ptr noundef nonnull align 8 dereferenceable(8) %13)
  %15 = extractvalue { double, double } %14, 0
  %16 = extractvalue { double, double } %14, 1
  %17 = tail call double @llvm.copysign.f64(double 5.000000e-01, double %15)
  %18 = fadd double %15, %17
  %19 = fptosi double %18 to i32
  %20 = tail call double @llvm.copysign.f64(double 5.000000e-01, double %16)
  %21 = fadd double %16, %20
  %22 = fptosi double %21 to i32
  %.sroa.2.0.insert.ext.i = zext i32 %22 to i64
  %.sroa.2.0.insert.shift.i = shl nuw i64 %.sroa.2.0.insert.ext.i, 32
  %.sroa.0.0.insert.ext.i = zext i32 %19 to i64
  %.sroa.0.0.insert.insert.i = or disjoint i64 %.sroa.2.0.insert.shift.i, %.sroa.0.0.insert.ext.i
  store i64 %.sroa.0.0.insert.insert.i, ptr %3, align 8
  call void @_ZN5QMenu5popupERK6QPointP7QAction(ptr noundef nonnull align 8 dereferenceable(40) %11, ptr noundef nonnull align 4 dereferenceable(8) %3, ptr noundef null)
  br label %23

23:                                               ; preds = %10, %2
  ret void
}